; Function Attrs: mustprogress uwtable
define void @_ZN32pxrInternal_v0_24__pxrReserved__35UsdImagingExtentResolvingSceneIndex3NewERKNS_8TfRefPtrINS_16HdSceneIndexBaseEEERKSt10shared_ptrINS_21HdContainerDataSourceEE(ptr dead_on_unwind noalias nocapture writable writeonly sret(%"class.pxrInternal_v0_24__pxrReserved__::TfRefPtr") align 8 %0, ptr noundef nonnull align 8 dereferenceable(8) %1, ptr noundef nonnull align 8 dereferenceable(16) %2) local_unnamed_addr #1 align 2 personality ptr @__gxx_personality_v0 {
  %4 = tail call noalias noundef nonnull dereferenceable(168) ptr @_Znwm(i64 noundef 168) #22
  invoke void @_ZN32pxrInternal_v0_24__pxrReserved__35UsdImagingExtentResolvingSceneIndexC1ERKNS_8TfRefPtrINS_16HdSceneIndexBaseEEERKSt10shared_ptrINS_21HdContainerDataSourceEE(ptr noundef nonnull align 8 dereferenceable(168) %4, ptr noundef nonnull align 8 dereferenceable(8) %1, ptr noundef nonnull align 8 dereferenceable(16) %2)
          to label %5 unwind label %6

5:                                                ; preds = %3
  store ptr %4, ptr %0, align 8, !alias.scope !17
  ret void

6:                                                ; preds = %3
  %7 = landingpad { ptr, i32 }
          cleanup
  tail call void @_ZdlPvm(ptr noundef nonnull %4, i64 noundef 168) #21
  resume { ptr, i32 } %7
}